target datalayout = "e-m:e-p270:32:32-p271:32:32-p272:64:64-i64:64-i128:128-f80:128-n8:16:32:64-S128"
target triple = "x86_64-pc-linux-gnu"

%struct._object = type { i64, ptr }
%"struct.nanobind::dlpack::dtype" = type { i8, i8, i16 }
%"struct.nanobind::detail::managed_dltensor" = type { %"struct.nanobind::dlpack::dltensor", ptr, ptr }
%"struct.nanobind::dlpack::dltensor" = type { ptr, %"struct.nanobind::dlpack::device", i32, %"struct.nanobind::dlpack::dtype", ptr, ptr, i64 }
%"struct.nanobind::dlpack::device" = type { i32, i32 }
%"struct.nanobind::detail::ndarray_handle" = type <{ ptr, %"struct.std::atomic", ptr, ptr, i8, i8, i8, i8, [4 x i8] }>
%"struct.std::atomic" = type { %"struct.std::__atomic_base" }
%"struct.std::__atomic_base" = type { i64 }
%"struct.nanobind::detail::nb_ndarray" = type { %struct._object, ptr }

@.str.13 = private unnamed_addr constant [9 x i8] c"dltensor\00", align 1

; Function Attrs: mustprogress nounwind uwtable
define linkonce_odr noundef i64 @_ZNSt13__atomic_baseImEppEv(ptr noundef nonnull align 8 dereferenceable(8) %0) #0 comdat align 2 {
  %2 = alloca ptr, align 8
  %3 = alloca i64, align 8
  %4 = alloca i64, align 8
  store ptr %0, ptr %2, align 8
  %5 = load ptr, ptr %2, align 8
  %6 = getelementptr inbounds nuw %"struct.std::__atomic_base", ptr %5, i32 0, i32 0
  store i64 1, ptr %3, align 8
  %7 = load i64, ptr %3, align 8
  %8 = atomicrmw add ptr %6, i64 %7 seq_cst, align 8
  %9 = add i64 %8, %7
  store i64 %9, ptr %4, align 8
  %10 = load i64, ptr %4, align 8
  ret i64 %10
}

; Function Attrs: mustprogress nounwind uwtable
define noundef ptr @_ZN8nanobind6detail15ndarray_inc_refEPNS0_14ndarray_handleE(ptr noundef %0) #0 {
  %2 = alloca ptr, align 8
  %3 = alloca ptr, align 8
  store ptr %0, ptr %3, align 8
  %4 = load ptr, ptr %3, align 8
  %5 = icmp ne ptr %4, null
  br i1 %5, label %7, label %6

6:                                                ; preds = %1
  store ptr null, ptr %2, align 8
  br label %15

7:                                                ; preds = %1
  %8 = load ptr, ptr %3, align 8
  %9 = getelementptr inbounds nuw %"struct.nanobind::detail::ndarray_handle", ptr %8, i32 0, i32 1
  %10 = call noundef i64 @_ZNSt13__atomic_baseImEppEv(ptr noundef nonnull align 8 dereferenceable(8) %9) #17
  %11 = load ptr, ptr %3, align 8
  %12 = getelementptr inbounds nuw %"struct.nanobind::detail::ndarray_handle", ptr %11, i32 0, i32 0
  %13 = load ptr, ptr %12, align 8
  %14 = getelementptr inbounds nuw %"struct.nanobind::detail::managed_dltensor", ptr %13, i32 0, i32 0
  store ptr %14, ptr %2, align 8
  br label %15

15:                                               ; preds = %7, %6
  %16 = load ptr, ptr %2, align 8
  ret ptr %16
}

; Function Attrs: mustprogress uwtable
define internal noundef ptr @_ZN8nanobind6detailL17nb_ndarray_dlpackEP7_objectP11_typeobjectPKS2_lS2_(ptr noundef %0, ptr noundef %1, ptr noundef %2, i64 noundef %3, ptr noundef %4) #12 {
  %6 = alloca ptr, align 8
  %7 = alloca ptr, align 8
  %8 = alloca ptr, align 8
  %9 = alloca i64, align 8
  %10 = alloca ptr, align 8
  %11 = alloca ptr, align 8
  %12 = alloca ptr, align 8
  %13 = alloca ptr, align 8
  store ptr %0, ptr %6, align 8
  store ptr %1, ptr %7, align 8
  store ptr %2, ptr %8, align 8
  store i64 %3, ptr %9, align 8
  store ptr %4, ptr %10, align 8
  call void @llvm.lifetime.start.p0(i64 8, ptr %11) #17
  %14 = load ptr, ptr %6, align 8
  store ptr %14, ptr %11, align 8
  call void @llvm.lifetime.start.p0(i64 8, ptr %12) #17
  %15 = load ptr, ptr %11, align 8
  %16 = getelementptr inbounds nuw %"struct.nanobind::detail::nb_ndarray", ptr %15, i32 0, i32 1
  %17 = load ptr, ptr %16, align 8
  store ptr %17, ptr %12, align 8
  call void @llvm.lifetime.start.p0(i64 8, ptr %13) #17
  %18 = load ptr, ptr %12, align 8
  %19 = getelementptr inbounds nuw %"struct.nanobind::detail::ndarray_handle", ptr %18, i32 0, i32 0
  %20 = load ptr, ptr %19, align 8
  %21 = call ptr @PyCapsule_New(ptr noundef %20, ptr noundef @.str.13, ptr noundef @_ZN8nanobind6detailL26ndarray_capsule_destructorEP7_object)
  store ptr %21, ptr %13, align 8
  %22 = load ptr, ptr %13, align 8
  %23 = icmp ne ptr %22, null
  br i1 %23, label %24, label %27

24:                                               ; preds = %5
  %25 = load ptr, ptr %12, align 8
  %26 = call noundef ptr @_ZN8nanobind6detail15ndarray_inc_refEPNS0_14ndarray_handleE(ptr noundef %25) #17
  br label %27

27:                                               ; preds = %24, %5
  %28 = load ptr, ptr %13, align 8
  call void @llvm.lifetime.end.p0(i64 8, ptr %13) #17
  call void @llvm.lifetime.end.p0(i64 8, ptr %12) #17
  call void @llvm.lifetime.end.p0(i64 8, ptr %11) #17
  ret ptr %28
}