; Function Attrs: mustprogress uwtable
define internal noundef ptr @_ZN8nanobind6detailL17nb_ndarray_dlpackEP7_objectP11_typeobjectPKS2_lS2_(ptr noundef readonly captures(none) %0, ptr readnone captures(none) %1, ptr readnone captures(none) %2, i64 %3, ptr readnone captures(none) %4) #11 {
  %6 = getelementptr inbounds nuw i8, ptr %0, i64 16
  %7 = load ptr, ptr %6, align 8
  %8 = load ptr, ptr %7, align 8
  %9 = tail call ptr @PyCapsule_New(ptr noundef %8, ptr noundef nonnull @.str.13, ptr noundef nonnull @_ZN8nanobind6detailL26ndarray_capsule_destructorEP7_object)
  %.not = icmp eq ptr %9, null
  br i1 %.not, label %12, label %_ZN8nanobind6detail15ndarray_inc_refEPNS0_14ndarray_handleE.exit

_ZN8nanobind6detail15ndarray_inc_refEPNS0_14ndarray_handleE.exit: ; preds = %5
  %10 = getelementptr inbounds nuw i8, ptr %7, i64 8
  %11 = atomicrmw add ptr %10, i64 1 seq_cst, align 8
  br label %12

12:                                               ; preds = %_ZN8nanobind6detail15ndarray_inc_refEPNS0_14ndarray_handleE.exit, %5
  ret ptr %9
}